target datalayout = "e-m:e-p270:32:32-p271:32:32-p272:64:64-i64:64-i128:128-f80:128-n8:16:32:64-S128"
target triple = "x86_64-pc-linux-gnu"

%"class.boost::iostreams::detail::bzip2_base" = type <{ %"struct.boost::iostreams::bzip2_params", ptr, i8, [7 x i8] }>
%"struct.boost::iostreams::bzip2_params" = type { %union.anon.0, i32 }
%union.anon.0 = type { i32 }

; Function Attrs: mustprogress uwtable
define void @_ZN5boost9iostreams6detail10bzip2_baseC2ERKNS0_12bzip2_paramsE(ptr noundef nonnull align 8 dereferenceable(17) %0, ptr noundef nonnull align 4 dereferenceable(8) %1) unnamed_addr #0 align 2 {
  %3 = alloca ptr, align 8
  %4 = alloca ptr, align 8
  store ptr %0, ptr %3, align 8, !tbaa !3
  store ptr %1, ptr %4, align 8, !tbaa !3
  %5 = load ptr, ptr %3, align 8
  %6 = getelementptr inbounds nuw %"class.boost::iostreams::detail::bzip2_base", ptr %5, i32 0, i32 0
  %7 = load ptr, ptr %4, align 8, !tbaa !3
  call void @llvm.memcpy.p0.p0.i64(ptr align 8 %6, ptr align 4 %7, i64 8, i1 false), !tbaa.struct !22
  %8 = getelementptr inbounds nuw %"class.boost::iostreams::detail::bzip2_base", ptr %5, i32 0, i32 1
  %9 = call noalias noundef nonnull ptr @_Znwm(i64 noundef 80) #17
  store ptr %9, ptr %8, align 8, !tbaa !24
  %10 = getelementptr inbounds nuw %"class.boost::iostreams::detail::bzip2_base", ptr %5, i32 0, i32 2
  store i8 0, ptr %10, align 8, !tbaa !28
  ret void
}