; Function Attrs: mustprogress uwtable
define void @_ZN5boost9iostreams6detail10bzip2_baseC2ERKNS0_12bzip2_paramsE(ptr nocapture noundef nonnull writeonly align 8 dereferenceable(17) %0, ptr nocapture noundef nonnull readonly align 4 dereferenceable(8) %1) unnamed_addr #0 align 2 {
  %3 = load i64, ptr %1, align 4
  store i64 %3, ptr %0, align 8
  %4 = getelementptr inbounds nuw i8, ptr %0, i64 8
  %5 = tail call noalias noundef nonnull dereferenceable(80) ptr @_Znwm(i64 noundef 80) #24
  store ptr %5, ptr %4, align 8, !tbaa !23
  %6 = getelementptr inbounds nuw i8, ptr %0, i64 16
  store i8 0, ptr %6, align 8, !tbaa !27
  ret void
}